target datalayout = "e-m:e-p270:32:32-p271:32:32-p272:64:64-i64:64-i128:128-f80:128-n8:16:32:64-S128"
target triple = "x86_64-unknown-linux-gnu"

%"class.ue2::AsciiComponentClass" = type { %"class.ue2::ComponentClass.base", i32, %"class.ue2::CharReach" }
%"class.ue2::ComponentClass.base" = type <{ %"class.ue2::Component", i8, %"struct.ue2::ParseMode", i8, i32, i8 }>
%"class.ue2::Component" = type { ptr, i32, i32 }
%"struct.ue2::ParseMode" = type { i8, i8, i8, i8, i8, i8 }
%"class.ue2::CharReach" = type { %"class.ue2::bitfield" }
%"class.ue2::bitfield" = type { %"struct.std::array" }
%"struct.std::array" = type { [4 x i64] }
%"class.std::__cxx11::basic_string" = type { %"struct.std::__cxx11::basic_string<char>::_Alloc_hider", i64, %union.anon }
%"struct.std::__cxx11::basic_string<char>::_Alloc_hider" = type { ptr }
%union.anon = type { i64, [8 x i8] }
%"class.std::allocator" = type { i8 }
%"class.ue2::ComponentClass" = type <{ %"class.ue2::Component", i8, %"struct.ue2::ParseMode", i8, i32, i8, [3 x i8] }>

@_ZTIN3ue217LocatedParseErrorE = external constant ptr
@.str.1 = private unnamed_addr constant [33 x i8] c"Invalid range in character class\00", align 1

; Function Attrs: mustprogress nounwind uwtable
define linkonce_odr dso_local noundef ptr @_ZNSt14__array_traitsIyLm4EE6_S_ptrERA4_Ky(ptr noundef nonnull align 8 dereferenceable(32) %__t) #5 comdat align 2 {
entry:
  %__t.addr = alloca ptr, align 8
  store ptr %__t, ptr %__t.addr, align 8
  %0 = load ptr, ptr %__t.addr, align 8
  %arraydecay = getelementptr inbounds [4 x i64], ptr %0, i64 0, i64 0
  ret ptr %arraydecay
}

; Function Attrs: mustprogress nounwind uwtable
define linkonce_odr dso_local noundef nonnull align 8 dereferenceable(8) ptr @_ZNSt14__array_traitsIyLm4EE6_S_refERA4_Kym(ptr noundef nonnull align 8 dereferenceable(32) %__t, i64 noundef %__n) #5 comdat align 2 {
entry:
  %__t.addr = alloca ptr, align 8
  %__n.addr = alloca i64, align 8
  store ptr %__t, ptr %__t.addr, align 8
  store i64 %__n, ptr %__n.addr, align 8
  %0 = load ptr, ptr %__t.addr, align 8
  %1 = load i64, ptr %__n.addr, align 8
  %arrayidx = getelementptr inbounds [4 x i64], ptr %0, i64 0, i64 %1
  ret ptr %arrayidx
}

; Function Attrs: mustprogress nounwind uwtable
define linkonce_odr dso_local noundef nonnull align 8 dereferenceable(8) ptr @_ZNSt5arrayIyLm4EE4backEv(ptr noundef nonnull align 8 dereferenceable(32) %this) #5 comdat align 2 {
entry:
  %this.addr = alloca ptr, align 8
  store ptr %this, ptr %this.addr, align 8
  %this1 = load ptr, ptr %this.addr, align 8
  %call = call noundef ptr @_ZNSt5arrayIyLm4EE3endEv(ptr noundef nonnull align 8 dereferenceable(32) %this1) #16
  %add.ptr = getelementptr inbounds i64, ptr %call, i64 -1
  ret ptr %add.ptr
}

; Function Attrs: mustprogress nounwind willreturn memory(none) uwtable
define linkonce_odr dso_local noundef ptr @_ZNSt5arrayIyLm4EE4dataEv(ptr noundef nonnull align 8 dereferenceable(32) %this) #8 comdat align 2 {
entry:
  %this.addr = alloca ptr, align 8
  store ptr %this, ptr %this.addr, align 8
  %this1 = load ptr, ptr %this.addr, align 8
  %_M_elems = getelementptr inbounds %"struct.std::array", ptr %this1, i32 0, i32 0
  %call = call noundef ptr @_ZNSt14__array_traitsIyLm4EE6_S_ptrERA4_Ky(ptr noundef nonnull align 8 dereferenceable(32) %_M_elems) #12
  ret ptr %call
}

; Function Attrs: mustprogress nounwind uwtable
define linkonce_odr dso_local noundef nonnull align 8 dereferenceable(8) ptr @_ZNSt5arrayIyLm4EEixEm(ptr noundef nonnull align 8 dereferenceable(32) %this, i64 noundef %__n) #5 comdat align 2 {
entry:
  %this.addr = alloca ptr, align 8
  %__n.addr = alloca i64, align 8
  store ptr %this, ptr %this.addr, align 8
  store i64 %__n, ptr %__n.addr, align 8
  %this1 = load ptr, ptr %this.addr, align 8
  %_M_elems = getelementptr inbounds %"struct.std::array", ptr %this1, i32 0, i32 0
  %0 = load i64, ptr %__n.addr, align 8
  %call = call noundef nonnull align 8 dereferenceable(8) ptr @_ZNSt14__array_traitsIyLm4EE6_S_refERA4_Kym(ptr noundef nonnull align 8 dereferenceable(32) %_M_elems, i64 noundef %0) #12
  ret ptr %call
}

; Function Attrs: mustprogress nounwind uwtable
define linkonce_odr dso_local noundef nonnull align 8 dereferenceable(8) ptr @_ZNKSt5arrayIyLm4EEixEm(ptr noundef nonnull align 8 dereferenceable(32) %this, i64 noundef %__n) #5 comdat align 2 {
entry:
  %this.addr = alloca ptr, align 8
  %__n.addr = alloca i64, align 8
  store ptr %this, ptr %this.addr, align 8
  store i64 %__n, ptr %__n.addr, align 8
  %this1 = load ptr, ptr %this.addr, align 8
  %_M_elems = getelementptr inbounds %"struct.std::array", ptr %this1, i32 0, i32 0
  %0 = load i64, ptr %__n.addr, align 8
  %call = call noundef nonnull align 8 dereferenceable(8) ptr @_ZNSt14__array_traitsIyLm4EE6_S_refERA4_Kym(ptr noundef nonnull align 8 dereferenceable(32) %_M_elems, i64 noundef %0) #12
  ret ptr %call
}

; Function Attrs: mustprogress nounwind uwtable
define linkonce_odr hidden void @_ZN3ue28bitfieldILm256EE13clear_trailerEv(ptr noundef nonnull align 8 dereferenceable(32) %this) #5 comdat align 2 {
entry:
  %this.addr = alloca ptr, align 8
  %final_bits = alloca i64, align 8
  store ptr %this, ptr %this.addr, align 8
  %this1 = load ptr, ptr %this.addr, align 8
  store i64 0, ptr %final_bits, align 8
  %0 = load i64, ptr %final_bits, align 8
  %tobool = icmp ne i64 %0, 0
  br i1 %tobool, label %if.then, label %if.end

if.then:                                          ; preds = %entry
  %1 = load i64, ptr %final_bits, align 8
  %shl = shl i64 1, %1
  %sub = sub i64 %shl, 1
  %bits = getelementptr inbounds %"class.ue2::bitfield", ptr %this1, i32 0, i32 0
  %call = call noundef nonnull align 8 dereferenceable(8) ptr @_ZNSt5arrayIyLm4EE4backEv(ptr noundef nonnull align 8 dereferenceable(32) %bits) #12
  %2 = load i64, ptr %call, align 8
  %and = and i64 %2, %sub
  store i64 %and, ptr %call, align 8
  br label %if.end

if.end:                                           ; preds = %if.then, %entry
  ret void
}

; Function Attrs: mustprogress nounwind willreturn memory(none) uwtable
define linkonce_odr dso_local noundef ptr @_ZNSt5arrayIyLm4EE3endEv(ptr noundef nonnull align 8 dereferenceable(32) %this) #8 comdat align 2 {
entry:
  %this.addr = alloca ptr, align 8
  store ptr %this, ptr %this.addr, align 8
  %this1 = load ptr, ptr %this.addr, align 8
  %call = call noundef ptr @_ZNSt5arrayIyLm4EE4dataEv(ptr noundef nonnull align 8 dereferenceable(32) %this1) #16
  %add.ptr = getelementptr inbounds i64, ptr %call, i64 4
  ret ptr %add.ptr
}

; Function Attrs: mustprogress nounwind willreturn memory(none) uwtable
define linkonce_odr dso_local noundef ptr @_ZNSt5arrayIyLm4EE5beginEv(ptr noundef nonnull align 8 dereferenceable(32) %this) #8 comdat align 2 {
entry:
  %this.addr = alloca ptr, align 8
  store ptr %this, ptr %this.addr, align 8
  %this1 = load ptr, ptr %this.addr, align 8
  %call = call noundef ptr @_ZNSt5arrayIyLm4EE4dataEv(ptr noundef nonnull align 8 dereferenceable(32) %this1) #16
  ret ptr %call
}

; Function Attrs: mustprogress nounwind uwtable
define linkonce_odr hidden void @_ZN3ue28bitfieldILm256EEoRERKS1_(ptr noundef nonnull align 8 dereferenceable(32) %this, ptr noundef nonnull align 8 dereferenceable(32) %a) #5 comdat align 2 {
entry:
  %this.addr = alloca ptr, align 8
  %a.addr = alloca ptr, align 8
  %i = alloca i64, align 8
  store ptr %this, ptr %this.addr, align 8
  store ptr %a, ptr %a.addr, align 8
  %this1 = load ptr, ptr %this.addr, align 8
  store i64 0, ptr %i, align 8
  br label %for.cond

for.cond:                                         ; preds = %for.inc, %entry
  %0 = load i64, ptr %i, align 8
  %add = add i64 %0, 4
  %cmp = icmp ule i64 %add, 4
  br i1 %cmp, label %for.body, label %for.end

for.body:                                         ; preds = %for.cond
  %1 = load ptr, ptr %a.addr, align 8
  %bits = getelementptr inbounds %"class.ue2::bitfield", ptr %1, i32 0, i32 0
  %2 = load i64, ptr %i, align 8
  %call = call noundef nonnull align 8 dereferenceable(8) ptr @_ZNKSt5arrayIyLm4EEixEm(ptr noundef nonnull align 8 dereferenceable(32) %bits, i64 noundef %2) #12
  %3 = load i64, ptr %call, align 8
  %bits2 = getelementptr inbounds %"class.ue2::bitfield", ptr %this1, i32 0, i32 0
  %4 = load i64, ptr %i, align 8
  %call3 = call noundef nonnull align 8 dereferenceable(8) ptr @_ZNSt5arrayIyLm4EEixEm(ptr noundef nonnull align 8 dereferenceable(32) %bits2, i64 noundef %4) #12
  %5 = load i64, ptr %call3, align 8
  %or = or i64 %5, %3
  store i64 %or, ptr %call3, align 8
  %6 = load ptr, ptr %a.addr, align 8
  %bits4 = getelementptr inbounds %"class.ue2::bitfield", ptr %6, i32 0, i32 0
  %7 = load i64, ptr %i, align 8
  %add5 = add i64 %7, 1
  %call6 = call noundef nonnull align 8 dereferenceable(8) ptr @_ZNKSt5arrayIyLm4EEixEm(ptr noundef nonnull align 8 dereferenceable(32) %bits4, i64 noundef %add5) #12
  %8 = load i64, ptr %call6, align 8
  %bits7 = getelementptr inbounds %"class.ue2::bitfield", ptr %this1, i32 0, i32 0
  %9 = load i64, ptr %i, align 8
  %add8 = add i64 %9, 1
  %call9 = call noundef nonnull align 8 dereferenceable(8) ptr @_ZNSt5arrayIyLm4EEixEm(ptr noundef nonnull align 8 dereferenceable(32) %bits7, i64 noundef %add8) #12
  %10 = load i64, ptr %call9, align 8
  %or10 = or i64 %10, %8
  store i64 %or10, ptr %call9, align 8
  %11 = load ptr, ptr %a.addr, align 8
  %bits11 = getelementptr inbounds %"class.ue2::bitfield", ptr %11, i32 0, i32 0
  %12 = load i64, ptr %i, align 8
  %add12 = add i64 %12, 2
  %call13 = call noundef nonnull align 8 dereferenceable(8) ptr @_ZNKSt5arrayIyLm4EEixEm(ptr noundef nonnull align 8 dereferenceable(32) %bits11, i64 noundef %add12) #12
  %13 = load i64, ptr %call13, align 8
  %bits14 = getelementptr inbounds %"class.ue2::bitfield", ptr %this1, i32 0, i32 0
  %14 = load i64, ptr %i, align 8
  %add15 = add i64 %14, 2
  %call16 = call noundef nonnull align 8 dereferenceable(8) ptr @_ZNSt5arrayIyLm4EEixEm(ptr noundef nonnull align 8 dereferenceable(32) %bits14, i64 noundef %add15) #12
  %15 = load i64, ptr %call16, align 8
  %or17 = or i64 %15, %13
  store i64 %or17, ptr %call16, align 8
  %16 = load ptr, ptr %a.addr, align 8
  %bits18 = getelementptr inbounds %"class.ue2::bitfield", ptr %16, i32 0, i32 0
  %17 = load i64, ptr %i, align 8
  %add19 = add i64 %17, 3
  %call20 = call noundef nonnull align 8 dereferenceable(8) ptr @_ZNKSt5arrayIyLm4EEixEm(ptr noundef nonnull align 8 dereferenceable(32) %bits18, i64 noundef %add19) #12
  %18 = load i64, ptr %call20, align 8
  %bits21 = getelementptr inbounds %"class.ue2::bitfield", ptr %this1, i32 0, i32 0
  %19 = load i64, ptr %i, align 8
  %add22 = add i64 %19, 3
  %call23 = call noundef nonnull align 8 dereferenceable(8) ptr @_ZNSt5arrayIyLm4EEixEm(ptr noundef nonnull align 8 dereferenceable(32) %bits21, i64 noundef %add22) #12
  %20 = load i64, ptr %call23, align 8
  %or24 = or i64 %20, %18
  store i64 %or24, ptr %call23, align 8
  br label %for.inc

for.inc:                                          ; preds = %for.body
  %21 = load i64, ptr %i, align 8
  %add25 = add i64 %21, 4
  store i64 %add25, ptr %i, align 8
  br label %for.cond, !llvm.loop !7

for.end:                                          ; preds = %for.cond
  br label %for.cond26

for.cond26:                                       ; preds = %for.inc34, %for.end
  %22 = load i64, ptr %i, align 8
  %cmp27 = icmp ult i64 %22, 4
  br i1 %cmp27, label %for.body28, label %for.end35

for.body28:                                       ; preds = %for.cond26
  %23 = load ptr, ptr %a.addr, align 8
  %bits29 = getelementptr inbounds %"class.ue2::bitfield", ptr %23, i32 0, i32 0
  %24 = load i64, ptr %i, align 8
  %call30 = call noundef nonnull align 8 dereferenceable(8) ptr @_ZNKSt5arrayIyLm4EEixEm(ptr noundef nonnull align 8 dereferenceable(32) %bits29, i64 noundef %24) #12
  %25 = load i64, ptr %call30, align 8
  %bits31 = getelementptr inbounds %"class.ue2::bitfield", ptr %this1, i32 0, i32 0
  %26 = load i64, ptr %i, align 8
  %call32 = call noundef nonnull align 8 dereferenceable(8) ptr @_ZNSt5arrayIyLm4EEixEm(ptr noundef nonnull align 8 dereferenceable(32) %bits31, i64 noundef %26) #12
  %27 = load i64, ptr %call32, align 8
  %or33 = or i64 %27, %25
  store i64 %or33, ptr %call32, align 8
  br label %for.inc34

for.inc34:                                        ; preds = %for.body28
  %28 = load i64, ptr %i, align 8
  %inc = add i64 %28, 1
  store i64 %inc, ptr %i, align 8
  br label %for.cond26, !llvm.loop !8

for.end35:                                        ; preds = %for.cond26
  ret void
}

; Function Attrs: mustprogress uwtable
define linkonce_odr hidden void @_ZN3ue28bitfieldILm256EE4flipEv(ptr noundef nonnull align 8 dereferenceable(32) %this) #0 comdat align 2 {
entry:
  %this.addr = alloca ptr, align 8
  %__range2 = alloca ptr, align 8
  %__begin0 = alloca ptr, align 8
  %__end0 = alloca ptr, align 8
  %e = alloca ptr, align 8
  store ptr %this, ptr %this.addr, align 8
  %this1 = load ptr, ptr %this.addr, align 8
  %bits = getelementptr inbounds %"class.ue2::bitfield", ptr %this1, i32 0, i32 0
  store ptr %bits, ptr %__range2, align 8
  %0 = load ptr, ptr %__range2, align 8
  %call = call noundef ptr @_ZNSt5arrayIyLm4EE5beginEv(ptr noundef nonnull align 8 dereferenceable(32) %0) #16
  store ptr %call, ptr %__begin0, align 8
  %1 = load ptr, ptr %__range2, align 8
  %call2 = call noundef ptr @_ZNSt5arrayIyLm4EE3endEv(ptr noundef nonnull align 8 dereferenceable(32) %1) #16
  store ptr %call2, ptr %__end0, align 8
  br label %for.cond

for.cond:                                         ; preds = %for.inc, %entry
  %2 = load ptr, ptr %__begin0, align 8
  %3 = load ptr, ptr %__end0, align 8
  %cmp = icmp ne ptr %2, %3
  br i1 %cmp, label %for.body, label %for.end

for.body:                                         ; preds = %for.cond
  %4 = load ptr, ptr %__begin0, align 8
  store ptr %4, ptr %e, align 8
  %5 = load ptr, ptr %e, align 8
  %6 = load i64, ptr %5, align 8
  %not = xor i64 %6, -1
  %7 = load ptr, ptr %e, align 8
  store i64 %not, ptr %7, align 8
  br label %for.inc

for.inc:                                          ; preds = %for.body
  %8 = load ptr, ptr %__begin0, align 8
  %incdec.ptr = getelementptr inbounds i64, ptr %8, i32 1
  store ptr %incdec.ptr, ptr %__begin0, align 8
  br label %for.cond

for.end:                                          ; preds = %for.cond
  call void @_ZN3ue28bitfieldILm256EE13clear_trailerEv(ptr noundef nonnull align 8 dereferenceable(32) %this1)
  ret void
}

; Function Attrs: mustprogress uwtable
define linkonce_odr hidden void @_ZN3ue29CharReachoRERKS0_(ptr noundef nonnull align 8 dereferenceable(32) %this, ptr noundef nonnull align 8 dereferenceable(32) %a) #0 comdat align 2 {
entry:
  %this.addr = alloca ptr, align 8
  %a.addr = alloca ptr, align 8
  store ptr %this, ptr %this.addr, align 8
  store ptr %a, ptr %a.addr, align 8
  %this1 = load ptr, ptr %this.addr, align 8
  %0 = load ptr, ptr %a.addr, align 8
  %bits = getelementptr inbounds %"class.ue2::CharReach", ptr %0, i32 0, i32 0
  %bits2 = getelementptr inbounds %"class.ue2::CharReach", ptr %this1, i32 0, i32 0
  call void @_ZN3ue28bitfieldILm256EEoRERKS1_(ptr noundef nonnull align 8 dereferenceable(32) %bits2, ptr noundef nonnull align 8 dereferenceable(32) %bits)
  ret void
}

; Function Attrs: mustprogress uwtable
define linkonce_odr hidden void @_ZN3ue29CharReach4flipEv(ptr noundef nonnull align 8 dereferenceable(32) %this) #0 comdat align 2 {
entry:
  %this.addr = alloca ptr, align 8
  store ptr %this, ptr %this.addr, align 8
  %this1 = load ptr, ptr %this.addr, align 8
  %bits = getelementptr inbounds %"class.ue2::CharReach", ptr %this1, i32 0, i32 0
  call void @_ZN3ue28bitfieldILm256EE4flipEv(ptr noundef nonnull align 8 dereferenceable(32) %bits)
  ret void
}

; Function Attrs: mustprogress uwtable
define hidden void @_ZN3ue219AsciiComponentClass3addENS_15PredefinedClassEb(ptr noundef nonnull align 8 dereferenceable(72) %this, i32 noundef %c, i1 noundef zeroext %negative) unnamed_addr #0 align 2 personality ptr @__gxx_personality_v0 {
entry:
  %this.addr = alloca ptr, align 8
  %c.addr = alloca i32, align 4
  %negative.addr = alloca i8, align 1
  %agg.tmp = alloca %"class.std::__cxx11::basic_string", align 8
  %ref.tmp = alloca %"class.std::allocator", align 1
  %exn.slot = alloca ptr, align 8
  %ehselector.slot = alloca i32, align 4
  %cleanup.isactive = alloca i1, align 1
  %pcr = alloca %"class.ue2::CharReach", align 8
  store ptr %this, ptr %this.addr, align 8
  store i32 %c, ptr %c.addr, align 4
  %frombool = zext i1 %negative to i8
  store i8 %frombool, ptr %negative.addr, align 1
  %this1 = load ptr, ptr %this.addr, align 8
  %in_cand_range = getelementptr inbounds %"class.ue2::ComponentClass", ptr %this1, i32 0, i32 3
  %0 = load i8, ptr %in_cand_range, align 1
  %tobool = trunc i8 %0 to i1
  br i1 %tobool, label %if.then, label %if.end

if.then:                                          ; preds = %entry
  store i1 true, ptr %cleanup.isactive, align 1
  %exception = call ptr @__cxa_allocate_exception(i64 56) #12
  call void @_ZNSaIcEC1Ev(ptr noundef nonnull align 1 dereferenceable(1) %ref.tmp) #12
  invoke void @_ZNSt7__cxx1112basic_stringIcSt11char_traitsIcESaIcEEC2IS3_EEPKcRKS3_(ptr noundef nonnull align 8 dereferenceable(32) %agg.tmp, ptr noundef @.str.1, ptr noundef nonnull align 1 dereferenceable(1) %ref.tmp)
          to label %invoke.cont unwind label %lpad

invoke.cont:                                      ; preds = %if.then
  invoke void @_ZN3ue217LocatedParseErrorC2ENSt7__cxx1112basic_stringIcSt11char_traitsIcESaIcEEE(ptr noundef nonnull align 8 dereferenceable(49) %exception, ptr noundef %agg.tmp)
          to label %invoke.cont3 unwind label %lpad2

invoke.cont3:                                     ; preds = %invoke.cont
  store i1 false, ptr %cleanup.isactive, align 1
  invoke void @__cxa_throw(ptr %exception, ptr @_ZTIN3ue217LocatedParseErrorE, ptr @_ZN3ue217LocatedParseErrorD1Ev) #15
          to label %unreachable unwind label %lpad2

lpad:                                             ; preds = %if.then
  %1 = landingpad { ptr, i32 }
          cleanup
  %2 = extractvalue { ptr, i32 } %1, 0
  store ptr %2, ptr %exn.slot, align 8
  %3 = extractvalue { ptr, i32 } %1, 1
  store i32 %3, ptr %ehselector.slot, align 4
  br label %ehcleanup

lpad2:                                            ; preds = %invoke.cont3, %invoke.cont
  %4 = landingpad { ptr, i32 }
          cleanup
  %5 = extractvalue { ptr, i32 } %4, 0
  store ptr %5, ptr %exn.slot, align 8
  %6 = extractvalue { ptr, i32 } %4, 1
  store i32 %6, ptr %ehselector.slot, align 4
  call void @_ZNSt7__cxx1112basic_stringIcSt11char_traitsIcESaIcEED1Ev(ptr noundef nonnull align 8 dereferenceable(32) %agg.tmp) #12
  br label %ehcleanup

ehcleanup:                                        ; preds = %lpad2, %lpad
  call void @_ZNSaIcED1Ev(ptr noundef nonnull align 1 dereferenceable(1) %ref.tmp) #12
  %cleanup.is_active = load i1, ptr %cleanup.isactive, align 1
  br i1 %cleanup.is_active, label %cleanup.action, label %cleanup.done

cleanup.action:                                   ; preds = %ehcleanup
  call void @__cxa_free_exception(ptr %exception) #12
  br label %cleanup.done

cleanup.done:                                     ; preds = %cleanup.action, %ehcleanup
  br label %eh.resume

if.end:                                           ; preds = %entry
  br label %do.body

do.body:                                          ; preds = %if.end
  br label %do.end

do.end:                                           ; preds = %do.body
  %mode = getelementptr inbounds %"class.ue2::ComponentClass", ptr %this1, i32 0, i32 2
  %ucp = getelementptr inbounds %"struct.ue2::ParseMode", ptr %mode, i32 0, i32 4
  %7 = load i8, ptr %ucp, align 1
  %tobool5 = trunc i8 %7 to i1
  br i1 %tobool5, label %if.then6, label %if.end8

if.then6:                                         ; preds = %do.end
  %8 = load i32, ptr %c.addr, align 4
  %mode7 = getelementptr inbounds %"class.ue2::ComponentClass", ptr %this1, i32 0, i32 2
  %call = call noundef i32 @_ZN3ue219translateForUcpModeENS_15PredefinedClassERKNS_9ParseModeE(i32 noundef %8, ptr noundef nonnull align 1 dereferenceable(6) %mode7)
  store i32 %call, ptr %c.addr, align 4
  br label %if.end8

if.end8:                                          ; preds = %if.then6, %do.end
  %9 = load i32, ptr %c.addr, align 4
  %mode9 = getelementptr inbounds %"class.ue2::ComponentClass", ptr %this1, i32 0, i32 2
  call void @_ZN3ue222getPredefinedCharReachENS_15PredefinedClassERKNS_9ParseModeE(ptr sret(%"class.ue2::CharReach") align 8 %pcr, i32 noundef %9, ptr noundef nonnull align 1 dereferenceable(6) %mode9)
  %10 = load i8, ptr %negative.addr, align 1
  %tobool10 = trunc i8 %10 to i1
  br i1 %tobool10, label %if.then11, label %if.end12

if.then11:                                        ; preds = %if.end8
  call void @_ZN3ue29CharReach4flipEv(ptr noundef nonnull align 8 dereferenceable(32) %pcr)
  br label %if.end12

if.end12:                                         ; preds = %if.then11, %if.end8
  %cr = getelementptr inbounds %"class.ue2::AsciiComponentClass", ptr %this1, i32 0, i32 2
  call void @_ZN3ue29CharReachoRERKS0_(ptr noundef nonnull align 8 dereferenceable(32) %cr, ptr noundef nonnull align 8 dereferenceable(32) %pcr)
  %range_start = getelementptr inbounds %"class.ue2::ComponentClass", ptr %this1, i32 0, i32 4
  store i32 -1, ptr %range_start, align 8
  %in_cand_range13 = getelementptr inbounds %"class.ue2::ComponentClass", ptr %this1, i32 0, i32 3
  store i8 0, ptr %in_cand_range13, align 1
  ret void

eh.resume:                                        ; preds = %cleanup.done
  %exn = load ptr, ptr %exn.slot, align 8
  %sel = load i32, ptr %ehselector.slot, align 4
  %lpad.val = insertvalue { ptr, i32 } poison, ptr %exn, 0
  %lpad.val14 = insertvalue { ptr, i32 } %lpad.val, i32 %sel, 1
  resume { ptr, i32 } %lpad.val14

unreachable:                                      ; preds = %invoke.cont3
  unreachable
}