; Function Attrs: mustprogress uwtable
define hidden void @_ZN3ue219AsciiComponentClass3addENS_15PredefinedClassEb(ptr noundef nonnull align 8 dereferenceable(72) %this, i32 noundef %c, i1 noundef zeroext %negative) unnamed_addr #0 align 2 personality ptr @__gxx_personality_v0 {
entry:
  %agg.tmp = alloca %"class.std::__cxx11::basic_string", align 8
  %ref.tmp = alloca %"class.std::allocator", align 1
  %pcr = alloca %"class.ue2::CharReach", align 16
  %in_cand_range = getelementptr inbounds i8, ptr %this, i64 23
  %0 = load i8, ptr %in_cand_range, align 1
  %1 = and i8 %0, 1
  %tobool.not = icmp eq i8 %1, 0
  br i1 %tobool.not, label %do.end, label %if.then

if.then:                                          ; preds = %entry
  %exception = tail call ptr @__cxa_allocate_exception(i64 56) #15
  call void @_ZNSaIcEC1Ev(ptr noundef nonnull align 1 dereferenceable(1) %ref.tmp) #15
  invoke void @_ZNSt7__cxx1112basic_stringIcSt11char_traitsIcESaIcEEC2IS3_EEPKcRKS3_(ptr noundef nonnull align 8 dereferenceable(32) %agg.tmp, ptr noundef nonnull @.str.1, ptr noundef nonnull align 1 dereferenceable(1) %ref.tmp)
          to label %invoke.cont unwind label %ehcleanup.thread

invoke.cont:                                      ; preds = %if.then
  invoke void @_ZN3ue217LocatedParseErrorC2ENSt7__cxx1112basic_stringIcSt11char_traitsIcESaIcEEE(ptr noundef nonnull align 8 dereferenceable(49) %exception, ptr noundef nonnull %agg.tmp)
          to label %invoke.cont3 unwind label %ehcleanup

invoke.cont3:                                     ; preds = %invoke.cont
  invoke void @__cxa_throw(ptr nonnull %exception, ptr nonnull @_ZTIN3ue217LocatedParseErrorE, ptr nonnull @_ZN3ue217LocatedParseErrorD1Ev) #16
          to label %unreachable unwind label %ehcleanup

ehcleanup.thread:                                 ; preds = %if.then
  %2 = landingpad { ptr, i32 }
          cleanup
  call void @_ZNSaIcED1Ev(ptr noundef nonnull align 1 dereferenceable(1) %ref.tmp) #15
  br label %cleanup.action

ehcleanup:                                        ; preds = %invoke.cont, %invoke.cont3
  %cleanup.isactive.0 = phi i1 [ false, %invoke.cont3 ], [ true, %invoke.cont ]
  %3 = landingpad { ptr, i32 }
          cleanup
  call void @_ZNSt7__cxx1112basic_stringIcSt11char_traitsIcESaIcEED1Ev(ptr noundef nonnull align 8 dereferenceable(32) %agg.tmp) #15
  call void @_ZNSaIcED1Ev(ptr noundef nonnull align 1 dereferenceable(1) %ref.tmp) #15
  br i1 %cleanup.isactive.0, label %cleanup.action, label %eh.resume

cleanup.action:                                   ; preds = %ehcleanup.thread, %ehcleanup
  %.pn6 = phi { ptr, i32 } [ %2, %ehcleanup.thread ], [ %3, %ehcleanup ]
  call void @__cxa_free_exception(ptr %exception) #15
  br label %eh.resume

do.end:                                           ; preds = %entry
  %mode = getelementptr inbounds i8, ptr %this, i64 17
  %ucp = getelementptr inbounds i8, ptr %this, i64 21
  %4 = load i8, ptr %ucp, align 1
  %5 = and i8 %4, 1
  %tobool5.not = icmp eq i8 %5, 0
  br i1 %tobool5.not, label %if.end8, label %if.then6

if.then6:                                         ; preds = %do.end
  %call = tail call noundef i32 @_ZN3ue219translateForUcpModeENS_15PredefinedClassERKNS_9ParseModeE(i32 noundef %c, ptr noundef nonnull align 1 dereferenceable(6) %mode)
  br label %if.end8

if.end8:                                          ; preds = %if.then6, %do.end
  %c.addr.0 = phi i32 [ %call, %if.then6 ], [ %c, %do.end ]
  call void @_ZN3ue222getPredefinedCharReachENS_15PredefinedClassERKNS_9ParseModeE(ptr nonnull sret(%"class.ue2::CharReach") align 8 %pcr, i32 noundef %c.addr.0, ptr noundef nonnull align 1 dereferenceable(6) %mode)
  br i1 %negative, label %for.body.i.i, label %if.end12

for.body.i.i:                                     ; preds = %if.end8, %for.body.i.i
  %__begin0.0.idx5.i.i = phi i64 [ %__begin0.0.add.i.i, %for.body.i.i ], [ 0, %if.end8 ]
  %__begin0.0.ptr.i.i = getelementptr inbounds i8, ptr %pcr, i64 %__begin0.0.idx5.i.i
  %6 = load i64, ptr %__begin0.0.ptr.i.i, align 8
  %not.i.i = xor i64 %6, -1
  store i64 %not.i.i, ptr %__begin0.0.ptr.i.i, align 8
  %__begin0.0.add.i.i = add nuw nsw i64 %__begin0.0.idx5.i.i, 8
  %cmp.not.i.i = icmp eq i64 %__begin0.0.add.i.i, 32
  br i1 %cmp.not.i.i, label %if.end12, label %for.body.i.i

if.end12:                                         ; preds = %for.body.i.i, %if.end8
  %cr = getelementptr inbounds i8, ptr %this, i64 40
  %7 = load <2 x i64>, ptr %pcr, align 16
  %8 = load <2 x i64>, ptr %cr, align 8
  %9 = or <2 x i64> %8, %7
  store <2 x i64> %9, ptr %cr, align 8
  %arrayidx.i.i21.i.i = getelementptr inbounds i8, ptr %pcr, i64 16
  %arrayidx.i.i22.i.i = getelementptr inbounds i8, ptr %this, i64 56
  %10 = load <2 x i64>, ptr %arrayidx.i.i21.i.i, align 16
  %11 = load <2 x i64>, ptr %arrayidx.i.i22.i.i, align 8
  %12 = or <2 x i64> %11, %10
  store <2 x i64> %12, ptr %arrayidx.i.i22.i.i, align 8
  %range_start = getelementptr inbounds i8, ptr %this, i64 24
  store i32 -1, ptr %range_start, align 8
  store i8 0, ptr %in_cand_range, align 1
  ret void

eh.resume:                                        ; preds = %ehcleanup, %cleanup.action
  %.pn5 = phi { ptr, i32 } [ %3, %ehcleanup ], [ %.pn6, %cleanup.action ]
  resume { ptr, i32 } %.pn5

unreachable:                                      ; preds = %invoke.cont3
  unreachable
}